; Function Attrs: mustprogress nofree norecurse nosync nounwind willreturn memory(read, inaccessiblemem: none) uwtable
define ptr @Cudd_addAgreement(ptr noundef readonly captures(none) %0, ptr noundef readonly captures(none) %1, ptr noundef readonly captures(none) %2) local_unnamed_addr #2 {
  %4 = load ptr, ptr %1, align 8, !tbaa !26
  %5 = load ptr, ptr %2, align 8, !tbaa !26
  %6 = icmp eq ptr %4, %5
  br i1 %6, label %20, label %7

7:                                                ; preds = %3
  %8 = getelementptr inbounds nuw i8, ptr %0, i64 72
  %9 = load ptr, ptr %8, align 8, !tbaa !36
  %10 = icmp eq ptr %4, %9
  br i1 %10, label %20, label %11

11:                                               ; preds = %7
  %12 = icmp eq ptr %5, %9
  br i1 %12, label %20, label %13

13:                                               ; preds = %11
  %14 = load i32, ptr %4, align 8, !tbaa !27
  %15 = icmp eq i32 %14, 2147483647
  br i1 %15, label %16, label %19

16:                                               ; preds = %13
  %17 = load i32, ptr %5, align 8, !tbaa !27
  %18 = icmp eq i32 %17, 2147483647
  br i1 %18, label %20, label %19

19:                                               ; preds = %16, %13
  br label %20

20:                                               ; preds = %16, %11, %7, %3, %19
  %.0 = phi ptr [ null, %19 ], [ %4, %3 ], [ %4, %7 ], [ %5, %11 ], [ %9, %16 ]
  ret ptr %.0
}